target datalayout = "e-m:e-p270:32:32-p271:32:32-p272:64:64-i64:64-i128:128-f80:128-n8:16:32:64-S128"
target triple = "x86_64-pc-linux-gnu"

@.str = private unnamed_addr constant [34 x i8] c"../openssl/crypto/asn1/asn1_gen.c\00", align 1
@__func__.bitstr_cb = private unnamed_addr constant [10 x i8] c"bitstr_cb\00", align 1

; Function Attrs: nounwind uwtable
define internal i32 @bitstr_cb(ptr noundef %0, i32 noundef %1, ptr noundef %2) #0 {
  %4 = alloca i32, align 4
  %5 = alloca ptr, align 8
  %6 = alloca i32, align 4
  %7 = alloca ptr, align 8
  %8 = alloca i64, align 8
  %9 = alloca ptr, align 8
  %10 = alloca i32, align 4
  store ptr %0, ptr %5, align 8, !tbaa !3
  store i32 %1, ptr %6, align 4, !tbaa !12
  store ptr %2, ptr %7, align 8, !tbaa !27
  call void @llvm.lifetime.start.p0(i64 8, ptr %8) #7
  call void @llvm.lifetime.start.p0(i64 8, ptr %9) #7
  %11 = load ptr, ptr %5, align 8, !tbaa !3
  %12 = icmp ne ptr %11, null
  br i1 %12, label %14, label %13

13:                                               ; preds = %3
  store i32 0, ptr %4, align 4
  store i32 1, ptr %10, align 4
  br label %44

14:                                               ; preds = %3
  %15 = load ptr, ptr %5, align 8, !tbaa !3
  %16 = call i64 @strtoul(ptr noundef %15, ptr noundef %9, i32 noundef 10) #7
  store i64 %16, ptr %8, align 8, !tbaa !18
  %17 = load ptr, ptr %9, align 8, !tbaa !3
  %18 = icmp ne ptr %17, null
  br i1 %18, label %19, label %32

19:                                               ; preds = %14
  %20 = load ptr, ptr %9, align 8, !tbaa !3
  %21 = load i8, ptr %20, align 1, !tbaa !36
  %22 = sext i8 %21 to i32
  %23 = icmp ne i32 %22, 0
  br i1 %23, label %24, label %32

24:                                               ; preds = %19
  %25 = load ptr, ptr %9, align 8, !tbaa !3
  %26 = load ptr, ptr %5, align 8, !tbaa !3
  %27 = load i32, ptr %6, align 4, !tbaa !12
  %28 = sext i32 %27 to i64
  %29 = getelementptr inbounds i8, ptr %26, i64 %28
  %30 = icmp ne ptr %25, %29
  br i1 %30, label %31, label %32

31:                                               ; preds = %24
  store i32 0, ptr %4, align 4
  store i32 1, ptr %10, align 4
  br label %44

32:                                               ; preds = %24, %19, %14
  %33 = load i64, ptr %8, align 8, !tbaa !18
  %34 = icmp slt i64 %33, 0
  br i1 %34, label %35, label %36

35:                                               ; preds = %32
  call void @ERR_new()
  call void @ERR_set_debug(ptr noundef @.str, i32 noundef 754, ptr noundef @__func__.bitstr_cb)
  call void (i32, i32, ptr, ...) @ERR_set_error(i32 noundef 13, i32 noundef 187, ptr noundef null)
  store i32 0, ptr %4, align 4
  store i32 1, ptr %10, align 4
  br label %44

36:                                               ; preds = %32
  %37 = load ptr, ptr %7, align 8, !tbaa !27
  %38 = load i64, ptr %8, align 8, !tbaa !18
  %39 = trunc i64 %38 to i32
  %40 = call i32 @ASN1_BIT_STRING_set_bit(ptr noundef %37, i32 noundef %39, i32 noundef 1)
  %41 = icmp ne i32 %40, 0
  br i1 %41, label %43, label %42

42:                                               ; preds = %36
  call void @ERR_new()
  call void @ERR_set_debug(ptr noundef @.str, i32 noundef 758, ptr noundef @__func__.bitstr_cb)
  call void (i32, i32, ptr, ...) @ERR_set_error(i32 noundef 13, i32 noundef 524301, ptr noundef null)
  store i32 0, ptr %4, align 4
  store i32 1, ptr %10, align 4
  br label %44

43:                                               ; preds = %36
  store i32 1, ptr %4, align 4
  store i32 1, ptr %10, align 4
  br label %44

44:                                               ; preds = %43, %42, %35, %31, %13
  call void @llvm.lifetime.end.p0(i64 8, ptr %9) #7
  call void @llvm.lifetime.end.p0(i64 8, ptr %8) #7
  %45 = load i32, ptr %4, align 4
  ret i32 %45
}