; Function Attrs: nounwind uwtable
define internal range(i32 0, 2) i32 @bitstr_cb(ptr noundef %0, i32 noundef %1, ptr noundef %2) #0 {
  %4 = alloca ptr, align 8
  call void @llvm.lifetime.start.p0(i64 8, ptr nonnull %4) #7
  %.not = icmp eq ptr %0, null
  br i1 %.not, label %17, label %5

5:                                                ; preds = %3
  %6 = call i64 @strtoul(ptr noundef nonnull %0, ptr noundef nonnull %4, i32 noundef 10) #7
  %7 = load ptr, ptr %4, align 8, !tbaa !7
  %.not10 = icmp eq ptr %7, null
  br i1 %.not10, label %12, label %8

8:                                                ; preds = %5
  %9 = load i8, ptr %7, align 1, !tbaa !23
  %.not11 = icmp eq i8 %9, 0
  %10 = sext i32 %1 to i64
  %11 = getelementptr inbounds i8, ptr %0, i64 %10
  %.not12 = icmp eq ptr %7, %11
  %or.cond = select i1 %.not11, i1 true, i1 %.not12
  br i1 %or.cond, label %12, label %17

12:                                               ; preds = %8, %5
  %13 = icmp slt i64 %6, 0
  br i1 %13, label %.sink.split, label %14

14:                                               ; preds = %12
  %15 = trunc i64 %6 to i32
  %16 = tail call i32 @ASN1_BIT_STRING_set_bit(ptr noundef %2, i32 noundef %15, i32 noundef 1) #7
  %.not13 = icmp eq i32 %16, 0
  br i1 %.not13, label %.sink.split, label %17

.sink.split:                                      ; preds = %14, %12
  %.sink15 = phi i32 [ 754, %12 ], [ 758, %14 ]
  %.sink = phi i32 [ 187, %12 ], [ 524301, %14 ]
  tail call void @ERR_new() #7
  tail call void @ERR_set_debug(ptr noundef nonnull @.str, i32 noundef %.sink15, ptr noundef nonnull @__func__.bitstr_cb) #7
  tail call void (i32, i32, ptr, ...) @ERR_set_error(i32 noundef 13, i32 noundef %.sink, ptr noundef null) #7
  br label %17

17:                                               ; preds = %.sink.split, %14, %8, %3
  %.0 = phi i32 [ 0, %3 ], [ 0, %8 ], [ 1, %14 ], [ 0, %.sink.split ]
  call void @llvm.lifetime.end.p0(i64 8, ptr nonnull %4) #7
  ret i32 %.0
}